; Function Attrs: mustprogress nofree noinline norecurse nosync nounwind memory(readwrite, inaccessiblemem: none) uwtable
define internal fastcc noundef i64 @_ZN11duckdb_zstdL29ZSTD_BtFindBestMatch_noDict_4EPNS_17ZSTD_matchState_tEPKhS3_Pm(ptr noundef captures(none) %0, ptr noundef %1, ptr noundef captures(address) %2, ptr noundef nonnull captures(none) %3) unnamed_addr #6 {
  %5 = getelementptr inbounds nuw i8, ptr %0, i64 8
  %6 = load ptr, ptr %5, align 8, !tbaa !3
  %7 = getelementptr inbounds nuw i8, ptr %0, i64 44
  %8 = load i32, ptr %7, align 4, !tbaa !22
  %9 = zext i32 %8 to i64
  %10 = getelementptr inbounds nuw i8, ptr %6, i64 %9
  %11 = icmp ult ptr %1, %10
  br i1 %11, label %_ZN11duckdb_zstdL20ZSTD_BtFindBestMatchEPNS_17ZSTD_matchState_tEPKhS3_PmjNS_15ZSTD_dictMode_eE.exit, label %12

12:                                               ; preds = %4
  %13 = getelementptr inbounds nuw i8, ptr %0, i64 112
  %14 = load ptr, ptr %13, align 8, !tbaa !19
  %15 = getelementptr inbounds nuw i8, ptr %0, i64 128
  %16 = load ptr, ptr %15, align 8, !tbaa !20
  %17 = getelementptr inbounds nuw i8, ptr %0, i64 260
  %18 = load i32, ptr %17, align 4, !tbaa !37
  %19 = add i32 %18, -1
  %notmask.i = shl nsw i32 -1, %19
  %20 = xor i32 %notmask.i, -1
  %21 = ptrtoint ptr %1 to i64
  %22 = ptrtoint ptr %6 to i64
  %23 = sub i64 %21, %22
  %24 = trunc i64 %23 to i32
  %25 = icmp ult i32 %8, %24
  br i1 %25, label %.lr.ph.i, label %_ZN11duckdb_zstdL15ZSTD_updateDUBTEPNS_17ZSTD_matchState_tEPKhS3_j.exit

.lr.ph.i:                                         ; preds = %12
  %26 = getelementptr inbounds nuw i8, ptr %0, i64 264
  %27 = load i32, ptr %26, align 4, !tbaa !36
  %28 = sub i32 32, %27
  %29 = and i64 %23, 4294967295
  br label %_ZN11duckdb_zstdL12ZSTD_hashPtrEPKvjj.exit.us12.i

_ZN11duckdb_zstdL12ZSTD_hashPtrEPKvjj.exit.us12.i: ; preds = %_ZN11duckdb_zstdL12ZSTD_hashPtrEPKvjj.exit.us12.i, %.lr.ph.i
  %indvars.iv.i = phi i64 [ %indvars.iv.next.i, %_ZN11duckdb_zstdL12ZSTD_hashPtrEPKvjj.exit.us12.i ], [ %9, %.lr.ph.i ]
  %30 = getelementptr inbounds nuw i8, ptr %6, i64 %indvars.iv.i
  %.val.us.i = load i32, ptr %30, align 1, !tbaa !26
  %31 = mul i32 %.val.us.i, -1640531535
  %32 = lshr i32 %31, %28
  %33 = zext i32 %32 to i64
  %34 = getelementptr inbounds nuw i32, ptr %14, i64 %33
  %35 = load i32, ptr %34, align 4, !tbaa !26
  %36 = trunc nuw i64 %indvars.iv.i to i32
  %37 = and i32 %36, %20
  %38 = shl nuw i32 %37, 1
  %39 = zext i32 %38 to i64
  %40 = getelementptr inbounds nuw i32, ptr %16, i64 %39
  %41 = getelementptr inbounds nuw i8, ptr %40, i64 4
  store i32 %36, ptr %34, align 4, !tbaa !26
  store i32 %35, ptr %40, align 4, !tbaa !26
  store i32 1, ptr %41, align 4, !tbaa !26
  %indvars.iv.next.i = add nuw nsw i64 %indvars.iv.i, 1
  %exitcond.not = icmp eq i64 %indvars.iv.next.i, %29
  br i1 %exitcond.not, label %_ZN11duckdb_zstdL15ZSTD_updateDUBTEPNS_17ZSTD_matchState_tEPKhS3_j.exit, label %_ZN11duckdb_zstdL12ZSTD_hashPtrEPKvjj.exit.us12.i, !llvm.loop !77

_ZN11duckdb_zstdL15ZSTD_updateDUBTEPNS_17ZSTD_matchState_tEPKhS3_j.exit: ; preds = %_ZN11duckdb_zstdL12ZSTD_hashPtrEPKvjj.exit.us12.i, %12
  store i32 %24, ptr %7, align 4, !tbaa !22
  %42 = tail call fastcc noundef i64 @_ZN11duckdb_zstdL23ZSTD_DUBT_findBestMatchEPNS_17ZSTD_matchState_tEPKhS3_PmjNS_15ZSTD_dictMode_eE(ptr noundef %0, ptr noundef %1, ptr noundef %2, ptr noundef nonnull %3, i32 noundef 4, i32 noundef 0)
  br label %_ZN11duckdb_zstdL20ZSTD_BtFindBestMatchEPNS_17ZSTD_matchState_tEPKhS3_PmjNS_15ZSTD_dictMode_eE.exit

_ZN11duckdb_zstdL20ZSTD_BtFindBestMatchEPNS_17ZSTD_matchState_tEPKhS3_PmjNS_15ZSTD_dictMode_eE.exit: ; preds = %4, %_ZN11duckdb_zstdL15ZSTD_updateDUBTEPNS_17ZSTD_matchState_tEPKhS3_j.exit
  %.0.i = phi i64 [ %42, %_ZN11duckdb_zstdL15ZSTD_updateDUBTEPNS_17ZSTD_matchState_tEPKhS3_j.exit ], [ 0, %4 ]
  ret i64 %.0.i
}